; Function Attrs: mustprogress nounwind uwtable
define dso_local void @_ZN4llvm3pdb10InfoStreamC2ESt10unique_ptrINS_12BinaryStreamESt14default_deleteIS3_EE(ptr noundef nonnull align 8 dereferenceable(224) %0, ptr nocapture noundef %1) unnamed_addr #0 align 2 {
  %3 = load i64, ptr %1, align 8
  store i64 %3, ptr %0, align 8
  store ptr null, ptr %1, align 8
  %4 = getelementptr inbounds nuw i8, ptr %0, i64 8
  %5 = getelementptr inbounds i8, ptr %0, i64 64
  store i8 0, ptr %5, align 8
  %6 = getelementptr inbounds nuw i8, ptr %0, i64 72
  %7 = getelementptr inbounds nuw i8, ptr %0, i64 104
  tail call void @llvm.memset.p0.i64(ptr noundef nonnull align 8 dereferenceable(48) %4, i8 0, i64 48, i1 false)
  tail call void @llvm.memset.p0.i64(ptr noundef nonnull align 8 dereferenceable(32) %6, i8 0, i64 32, i1 false)
  tail call void @_ZN4llvm3pdb14NamedStreamMapC1Ev(ptr noundef nonnull align 8 dereferenceable(120) %7) #18
  ret void
}